target datalayout = "e-m:e-p270:32:32-p271:32:32-p272:64:64-i64:64-i128:128-f80:128-n8:16:32:64-S128"
target triple = "x86_64-unknown-linux-gnu"

%"struct.node::AssertionInfo" = type { ptr, ptr, ptr }
%"class.v8::IndirectHandleBase" = type { ptr }
%struct.uvwasi_mem_s = type { ptr, ptr, ptr, ptr, ptr }
%"class.node::wasi::WASI" = type { %"class.node::BaseObject", %"class.node::mem::NgLibMemoryManager", %struct.uvwasi_s, %"class.v8::Global.0", %struct.uvwasi_mem_s, i64 }
%"class.node::BaseObject" = type { %"class.node::MemoryRetainer", %"class.v8::Global", ptr, ptr }
%"class.node::MemoryRetainer" = type { ptr }
%"class.v8::Global" = type { %"class.v8::PersistentBase" }
%"class.v8::PersistentBase" = type { %"class.v8::IndirectHandleBase" }
%"class.node::mem::NgLibMemoryManager" = type { %"struct.node::mem::NgLibMemoryManagerBase" }
%"struct.node::mem::NgLibMemoryManagerBase" = type { ptr }
%struct.uvwasi_s = type { ptr, i32, ptr, ptr, i32, i32, ptr, ptr, i32, ptr, ptr }
%"class.v8::Global.0" = type { %"class.v8::PersistentBase.1" }
%"class.v8::PersistentBase.1" = type { %"class.v8::IndirectHandleBase" }

@_ZZN4node4wasi4WASID1EvE4args = internal constant %"struct.node::AssertionInfo" { ptr @.str.4, ptr @.str.5, ptr @.str.6 }, align 8

; Function Attrs: mustprogress nounwind uwtable
define dso_local void @_ZN4node4wasi4WASID2Ev(ptr noundef nonnull align 8 dereferenceable(176) %this) unnamed_addr #4 align 2 {
entry:
  %this.addr.i11 = alloca ptr, align 8
  %this.addr.i9 = alloca ptr, align 8
  %this.addr.i.i = alloca ptr, align 8
  %this.addr.i7 = alloca ptr, align 8
  %this.addr.i = alloca ptr, align 8
  %this.addr = alloca ptr, align 8
  store ptr %this, ptr %this.addr, align 8
  %this1 = load ptr, ptr %this.addr, align 8
  store ptr getelementptr inbounds ({ [19 x ptr], [3 x ptr] }, ptr @_ZTVN4node4wasi4WASIE, i32 0, i32 0, i32 2), ptr %this1, align 8
  %add.ptr = getelementptr inbounds i8, ptr %this1, i64 32
  store ptr getelementptr inbounds ({ [19 x ptr], [3 x ptr] }, ptr @_ZTVN4node4wasi4WASIE, i32 0, i32 1, i32 2), ptr %add.ptr, align 8
  %uvw_ = getelementptr inbounds %"class.node::wasi::WASI", ptr %this1, i32 0, i32 2
  call void @uvwasi_destroy(ptr noundef %uvw_)
  br label %do.body

do.body:                                          ; preds = %entry
  %current_uvwasi_memory_ = getelementptr inbounds %"class.node::wasi::WASI", ptr %this1, i32 0, i32 5
  %0 = load i64, ptr %current_uvwasi_memory_, align 8
  %cmp = icmp eq i64 %0, 0
  %lnot = xor i1 %cmp, true
  %lnot2 = xor i1 %lnot, true
  %lnot3 = xor i1 %lnot2, true
  br i1 %lnot3, label %if.then, label %if.end

if.then:                                          ; preds = %do.body
  br label %do.body4

do.body4:                                         ; preds = %if.then
  call void @_ZN4node6AssertERKNS_13AssertionInfoE(ptr noundef nonnull align 8 dereferenceable(24) @_ZZN4node4wasi4WASID1EvE4args)
  call void @abort() #17
  unreachable

do.cond:                                          ; No predecessors!
  br label %do.end

do.end:                                           ; preds = %do.cond
  br label %if.end

if.end:                                           ; preds = %do.end, %do.body
  br label %do.cond5

do.cond5:                                         ; preds = %if.end
  br label %do.end6

do.end6:                                          ; preds = %do.cond5
  %memory_ = getelementptr inbounds %"class.node::wasi::WASI", ptr %this1, i32 0, i32 3
  store ptr %memory_, ptr %this.addr.i, align 8
  %this1.i = load ptr, ptr %this.addr.i, align 8
  store ptr %this1.i, ptr %this.addr.i7, align 8
  %this1.i8 = load ptr, ptr %this.addr.i7, align 8
  store ptr %this1.i8, ptr %this.addr.i.i, align 8
  %this1.i.i = load ptr, ptr %this.addr.i.i, align 8
  %1 = load ptr, ptr %this1.i.i, align 8
  %cmp.i.i = icmp eq ptr %1, null
  br i1 %cmp.i.i, label %if.then.i, label %if.end.i

if.then.i:                                        ; preds = %do.end6
  br label %_ZN2v814PersistentBaseINS_16WasmMemoryObjectEE5ResetEv.exit

if.end.i:                                         ; preds = %do.end6
  store ptr %this1.i8, ptr %this.addr.i9, align 8
  %this1.i10 = load ptr, ptr %this.addr.i9, align 8
  %2 = load ptr, ptr %this1.i10, align 8
  call void @_ZN2v812api_internal13DisposeGlobalEPm(ptr noundef %2) #3
  store ptr %this1.i8, ptr %this.addr.i11, align 8
  %this1.i12 = load ptr, ptr %this.addr.i11, align 8
  store ptr null, ptr %this1.i12, align 8
  br label %_ZN2v814PersistentBaseINS_16WasmMemoryObjectEE5ResetEv.exit

_ZN2v814PersistentBaseINS_16WasmMemoryObjectEE5ResetEv.exit: ; preds = %if.end.i, %if.then.i
  call void @_ZN4node10BaseObjectD2Ev(ptr noundef nonnull align 8 dereferenceable(32) %this1) #3
  ret void
}